target datalayout = "e-m:e-p270:32:32-p271:32:32-p272:64:64-i64:64-i128:128-f80:128-n8:16:32:64-S128"
target triple = "x86_64-pc-linux-gnu"

%"class.OpenImageIO::v3_1_0::CSHA1" = type { [5 x i32], [2 x i32], [1 x i32], [64 x i8], [20 x i8], [3 x i32], [64 x i8], ptr }

; Function Attrs: mustprogress nounwind uwtable
define hidden void @_ZN11OpenImageIO6v3_1_05CSHA15ResetEv(ptr noundef nonnull align 8 dereferenceable(200) %0) #7 align 2 {
  %2 = alloca ptr, align 8
  store ptr %0, ptr %2, align 8, !tbaa !20
  %3 = load ptr, ptr %2, align 8
  %4 = getelementptr inbounds nuw %"class.OpenImageIO::v3_1_0::CSHA1", ptr %3, i32 0, i32 0
  %5 = getelementptr inbounds [5 x i32], ptr %4, i64 0, i64 0
  store i32 1732584193, ptr %5, align 8, !tbaa !23
  %6 = getelementptr inbounds nuw %"class.OpenImageIO::v3_1_0::CSHA1", ptr %3, i32 0, i32 0
  %7 = getelementptr inbounds [5 x i32], ptr %6, i64 0, i64 1
  store i32 -271733879, ptr %7, align 4, !tbaa !23
  %8 = getelementptr inbounds nuw %"class.OpenImageIO::v3_1_0::CSHA1", ptr %3, i32 0, i32 0
  %9 = getelementptr inbounds [5 x i32], ptr %8, i64 0, i64 2
  store i32 -1732584194, ptr %9, align 8, !tbaa !23
  %10 = getelementptr inbounds nuw %"class.OpenImageIO::v3_1_0::CSHA1", ptr %3, i32 0, i32 0
  %11 = getelementptr inbounds [5 x i32], ptr %10, i64 0, i64 3
  store i32 271733878, ptr %11, align 4, !tbaa !23
  %12 = getelementptr inbounds nuw %"class.OpenImageIO::v3_1_0::CSHA1", ptr %3, i32 0, i32 0
  %13 = getelementptr inbounds [5 x i32], ptr %12, i64 0, i64 4
  store i32 -1009589776, ptr %13, align 8, !tbaa !23
  %14 = getelementptr inbounds nuw %"class.OpenImageIO::v3_1_0::CSHA1", ptr %3, i32 0, i32 1
  %15 = getelementptr inbounds [2 x i32], ptr %14, i64 0, i64 0
  store i32 0, ptr %15, align 4, !tbaa !23
  %16 = getelementptr inbounds nuw %"class.OpenImageIO::v3_1_0::CSHA1", ptr %3, i32 0, i32 1
  %17 = getelementptr inbounds [2 x i32], ptr %16, i64 0, i64 1
  store i32 0, ptr %17, align 4, !tbaa !23
  ret void
}