; Function Attrs: mustprogress nofree norecurse nosync nounwind willreturn memory(argmem: write) uwtable
define hidden void @_ZN11OpenImageIO6v3_1_05CSHA15ResetEv(ptr noundef nonnull writeonly align 8 captures(none) dereferenceable(200) initializes((0, 28)) %0) local_unnamed_addr #11 align 2 {
  store i32 1732584193, ptr %0, align 8, !tbaa !8
  %2 = getelementptr inbounds nuw i8, ptr %0, i64 4
  store i32 -271733879, ptr %2, align 4, !tbaa !8
  %3 = getelementptr inbounds nuw i8, ptr %0, i64 8
  store i32 -1732584194, ptr %3, align 8, !tbaa !8
  %4 = getelementptr inbounds nuw i8, ptr %0, i64 12
  store i32 271733878, ptr %4, align 4, !tbaa !8
  %5 = getelementptr inbounds nuw i8, ptr %0, i64 16
  store i32 -1009589776, ptr %5, align 8, !tbaa !8
  %6 = getelementptr inbounds nuw i8, ptr %0, i64 20
  store i32 0, ptr %6, align 4, !tbaa !8
  %7 = getelementptr inbounds nuw i8, ptr %0, i64 24
  store i32 0, ptr %7, align 8, !tbaa !8
  ret void
}